target datalayout = "e-m:e-p270:32:32-p271:32:32-p272:64:64-i64:64-i128:128-f80:128-n8:16:32:64-S128"
target triple = "x86_64-pc-linux-gnu"

%struct.AVRational = type { i32, i32 }
%struct.AVStream = type { ptr, i32, i32, ptr, ptr, %struct.AVRational, i64, i64, i64, i32, i32, %struct.AVRational, ptr, %struct.AVRational, %struct.AVPacket, i32, %struct.AVRational, i32 }
%struct.AVPacket = type { ptr, i64, i64, ptr, i32, i32, i32, ptr, i32, i64, i64, ptr, ptr, %struct.AVRational }
%struct.FFStream = type { %struct.AVStream, ptr, i32, ptr, i32, ptr, i32, %struct.anon, i32, i32, %struct.FFFrac, ptr, ptr, i32, i32, i64, i64, i32, i32, i32, i64, i64, i64, i32, i64, i64, i64, i32, i32, [17 x i64], [17 x i8], [17 x i64], i64, i8, i8, %struct.AVRational, %struct.AVProbeData, ptr, i64, i32, i32, i32, ptr, i32, i32, i64, i64, ptr, %struct.AVRational }
%struct.anon = type { ptr, i32 }
%struct.FFFrac = type { i64, i64, i64 }
%struct.AVProbeData = type { ptr, ptr, i32, ptr }
%struct.AVFormatContext = type { ptr, ptr, ptr, ptr, ptr, i32, i32, ptr, i32, ptr, i32, ptr, ptr, i64, i64, i64, i32, i32, i32, i64, i64, ptr, i32, i32, ptr, i32, i32, i32, i32, ptr, i64, i32, i32, %struct.AVIOInterruptCB, i32, i32, i32, i32, i64, i32, i32, i32, i32, i32, i32, i32, i32, i32, i32, i32, i32, i64, i32, i32, i32, i32, i32, ptr, ptr, ptr, ptr, i32, ptr, ptr, ptr, ptr, i32, ptr, ptr, i64, ptr, ptr, ptr, i64 }
%struct.AVIOInterruptCB = type { ptr, ptr }
%struct.AVCodecParameters = type { i32, i32, i32, ptr, i32, ptr, i32, i32, i64, i32, i32, i32, i32, i32, i32, %struct.AVRational, %struct.AVRational, i32, i32, i32, i32, i32, i32, i32, %struct.AVChannelLayout, i32, i32, i32, i32, i32, i32 }
%struct.AVChannelLayout = type { i32, i32, %union.anon.3, ptr }
%union.anon.3 = type { i64 }

; Function Attrs: alwaysinline nounwind uwtable
define internal ptr @cffstream(ptr noundef %0) #2 {
  %2 = alloca ptr, align 8
  store ptr %0, ptr %2, align 8, !tbaa !10
  %3 = load ptr, ptr %2, align 8, !tbaa !10
  ret ptr %3
}

; Function Attrs: nounwind uwtable
define i32 @av_find_default_stream_index(ptr noundef %0) #0 {
  %2 = alloca i32, align 4
  %3 = alloca ptr, align 8
  %4 = alloca i32, align 4
  %5 = alloca i32, align 4
  %6 = alloca i32, align 4
  %7 = alloca i32, align 4
  %8 = alloca ptr, align 8
  %9 = alloca ptr, align 8
  %10 = alloca i32, align 4
  store ptr %0, ptr %3, align 8, !tbaa !47
  call void @llvm.lifetime.start.p0(i64 4, ptr %4) #11
  store i32 0, ptr %4, align 4, !tbaa !74
  call void @llvm.lifetime.start.p0(i64 4, ptr %5) #11
  store i32 -2147483648, ptr %5, align 4, !tbaa !74
  %11 = load ptr, ptr %3, align 8, !tbaa !47
  %12 = getelementptr inbounds nuw %struct.AVFormatContext, ptr %11, i32 0, i32 6
  %13 = load i32, ptr %12, align 4, !tbaa !48
  %14 = icmp ule i32 %13, 0
  br i1 %14, label %15, label %16

15:                                               ; preds = %1
  store i32 -1, ptr %2, align 4
  store i32 1, ptr %6, align 4
  br label %116

16:                                               ; preds = %1
  call void @llvm.lifetime.start.p0(i64 4, ptr %7) #11
  store i32 0, ptr %7, align 4, !tbaa !74
  br label %17

17:                                               ; preds = %111, %16
  %18 = load i32, ptr %7, align 4, !tbaa !74
  %19 = load ptr, ptr %3, align 8, !tbaa !47
  %20 = getelementptr inbounds nuw %struct.AVFormatContext, ptr %19, i32 0, i32 6
  %21 = load i32, ptr %20, align 4, !tbaa !48
  %22 = icmp ult i32 %18, %21
  br i1 %22, label %24, label %23

23:                                               ; preds = %17
  store i32 2, ptr %6, align 4
  call void @llvm.lifetime.end.p0(i64 4, ptr %7) #11
  br label %114

24:                                               ; preds = %17
  call void @llvm.lifetime.start.p0(i64 8, ptr %8) #11
  %25 = load ptr, ptr %3, align 8, !tbaa !47
  %26 = getelementptr inbounds nuw %struct.AVFormatContext, ptr %25, i32 0, i32 7
  %27 = load ptr, ptr %26, align 8, !tbaa !57
  %28 = load i32, ptr %7, align 4, !tbaa !74
  %29 = zext i32 %28 to i64
  %30 = getelementptr inbounds nuw ptr, ptr %27, i64 %29
  %31 = load ptr, ptr %30, align 8, !tbaa !10
  store ptr %31, ptr %8, align 8, !tbaa !10
  call void @llvm.lifetime.start.p0(i64 8, ptr %9) #11
  %32 = load ptr, ptr %8, align 8, !tbaa !10
  %33 = call ptr @cffstream(ptr noundef %32)
  store ptr %33, ptr %9, align 8, !tbaa !12
  call void @llvm.lifetime.start.p0(i64 4, ptr %10) #11
  store i32 0, ptr %10, align 4, !tbaa !74
  %34 = load ptr, ptr %8, align 8, !tbaa !10
  %35 = getelementptr inbounds nuw %struct.AVStream, ptr %34, i32 0, i32 3
  %36 = load ptr, ptr %35, align 8, !tbaa !99
  %37 = getelementptr inbounds nuw %struct.AVCodecParameters, ptr %36, i32 0, i32 0
  %38 = load i32, ptr %37, align 8, !tbaa !117
  %39 = icmp eq i32 %38, 0
  br i1 %39, label %40, label %69

40:                                               ; preds = %24
  %41 = load ptr, ptr %8, align 8, !tbaa !10
  %42 = getelementptr inbounds nuw %struct.AVStream, ptr %41, i32 0, i32 9
  %43 = load i32, ptr %42, align 8, !tbaa !94
  %44 = and i32 %43, 1024
  %45 = icmp ne i32 %44, 0
  br i1 %45, label %46, label %49

46:                                               ; preds = %40
  %47 = load i32, ptr %10, align 4, !tbaa !74
  %48 = sub nsw i32 %47, 400
  store i32 %48, ptr %10, align 4, !tbaa !74
  br label %49

49:                                               ; preds = %46, %40
  %50 = load ptr, ptr %8, align 8, !tbaa !10
  %51 = getelementptr inbounds nuw %struct.AVStream, ptr %50, i32 0, i32 3
  %52 = load ptr, ptr %51, align 8, !tbaa !99
  %53 = getelementptr inbounds nuw %struct.AVCodecParameters, ptr %52, i32 0, i32 13
  %54 = load i32, ptr %53, align 8, !tbaa !120
  %55 = icmp ne i32 %54, 0
  br i1 %55, label %56, label %66

56:                                               ; preds = %49
  %57 = load ptr, ptr %8, align 8, !tbaa !10
  %58 = getelementptr inbounds nuw %struct.AVStream, ptr %57, i32 0, i32 3
  %59 = load ptr, ptr %58, align 8, !tbaa !99
  %60 = getelementptr inbounds nuw %struct.AVCodecParameters, ptr %59, i32 0, i32 14
  %61 = load i32, ptr %60, align 4, !tbaa !121
  %62 = icmp ne i32 %61, 0
  br i1 %62, label %63, label %66

63:                                               ; preds = %56
  %64 = load i32, ptr %10, align 4, !tbaa !74
  %65 = add nsw i32 %64, 50
  store i32 %65, ptr %10, align 4, !tbaa !74
  br label %66

66:                                               ; preds = %63, %56, %49
  %67 = load i32, ptr %10, align 4, !tbaa !74
  %68 = add nsw i32 %67, 25
  store i32 %68, ptr %10, align 4, !tbaa !74
  br label %69

69:                                               ; preds = %66, %24
  %70 = load ptr, ptr %8, align 8, !tbaa !10
  %71 = getelementptr inbounds nuw %struct.AVStream, ptr %70, i32 0, i32 3
  %72 = load ptr, ptr %71, align 8, !tbaa !99
  %73 = getelementptr inbounds nuw %struct.AVCodecParameters, ptr %72, i32 0, i32 0
  %74 = load i32, ptr %73, align 8, !tbaa !117
  %75 = icmp eq i32 %74, 1
  br i1 %75, label %76, label %87

76:                                               ; preds = %69
  %77 = load ptr, ptr %8, align 8, !tbaa !10
  %78 = getelementptr inbounds nuw %struct.AVStream, ptr %77, i32 0, i32 3
  %79 = load ptr, ptr %78, align 8, !tbaa !99
  %80 = getelementptr inbounds nuw %struct.AVCodecParameters, ptr %79, i32 0, i32 25
  %81 = load i32, ptr %80, align 8, !tbaa !122
  %82 = icmp ne i32 %81, 0
  br i1 %82, label %83, label %86

83:                                               ; preds = %76
  %84 = load i32, ptr %10, align 4, !tbaa !74
  %85 = add nsw i32 %84, 50
  store i32 %85, ptr %10, align 4, !tbaa !74
  br label %86

86:                                               ; preds = %83, %76
  br label %87

87:                                               ; preds = %86, %69
  %88 = load ptr, ptr %9, align 8, !tbaa !12
  %89 = getelementptr inbounds nuw %struct.FFStream, ptr %88, i32 0, i32 43
  %90 = load i32, ptr %89, align 8, !tbaa !123
  %91 = icmp ne i32 %90, 0
  br i1 %91, label %92, label %95

92:                                               ; preds = %87
  %93 = load i32, ptr %10, align 4, !tbaa !74
  %94 = add nsw i32 %93, 12
  store i32 %94, ptr %10, align 4, !tbaa !74
  br label %95

95:                                               ; preds = %92, %87
  %96 = load ptr, ptr %8, align 8, !tbaa !10
  %97 = getelementptr inbounds nuw %struct.AVStream, ptr %96, i32 0, i32 10
  %98 = load i32, ptr %97, align 4, !tbaa !95
  %99 = icmp ne i32 %98, 48
  br i1 %99, label %100, label %103

100:                                              ; preds = %95
  %101 = load i32, ptr %10, align 4, !tbaa !74
  %102 = add nsw i32 %101, 200
  store i32 %102, ptr %10, align 4, !tbaa !74
  br label %103

103:                                              ; preds = %100, %95
  %104 = load i32, ptr %10, align 4, !tbaa !74
  %105 = load i32, ptr %5, align 4, !tbaa !74
  %106 = icmp sgt i32 %104, %105
  br i1 %106, label %107, label %110

107:                                              ; preds = %103
  %108 = load i32, ptr %10, align 4, !tbaa !74
  store i32 %108, ptr %5, align 4, !tbaa !74
  %109 = load i32, ptr %7, align 4, !tbaa !74
  store i32 %109, ptr %4, align 4, !tbaa !74
  br label %110

110:                                              ; preds = %107, %103
  call void @llvm.lifetime.end.p0(i64 4, ptr %10) #11
  call void @llvm.lifetime.end.p0(i64 8, ptr %9) #11
  call void @llvm.lifetime.end.p0(i64 8, ptr %8) #11
  br label %111

111:                                              ; preds = %110
  %112 = load i32, ptr %7, align 4, !tbaa !74
  %113 = add i32 %112, 1
  store i32 %113, ptr %7, align 4, !tbaa !74
  br label %17, !llvm.loop !124

114:                                              ; preds = %23
  %115 = load i32, ptr %4, align 4, !tbaa !74
  store i32 %115, ptr %2, align 4
  store i32 1, ptr %6, align 4
  br label %116

116:                                              ; preds = %114, %15
  call void @llvm.lifetime.end.p0(i64 4, ptr %5) #11
  call void @llvm.lifetime.end.p0(i64 4, ptr %4) #11
  %117 = load i32, ptr %2, align 4
  ret i32 %117
}