; Function Attrs: nofree norecurse nosync nounwind memory(read, inaccessiblemem: none) uwtable
define i32 @av_find_default_stream_index(ptr noundef readonly captures(none) %0) local_unnamed_addr #5 {
  %2 = getelementptr inbounds nuw i8, ptr %0, i64 44
  %3 = load i32, ptr %2, align 4, !tbaa !42
  %4 = icmp eq i32 %3, 0
  br i1 %4, label %.loopexit, label %.preheader

.preheader:                                       ; preds = %1
  %5 = getelementptr inbounds nuw i8, ptr %0, i64 48
  %6 = load ptr, ptr %5, align 8, !tbaa !52
  %wide.trip.count = zext i32 %3 to i64
  br label %7

7:                                                ; preds = %.preheader, %27
  %indvars.iv = phi i64 [ 0, %.preheader ], [ %indvars.iv.next, %27 ]
  %.02743 = phi i32 [ 0, %.preheader ], [ %.128, %27 ]
  %.03041 = phi i32 [ -2147483648, %.preheader ], [ %.131, %27 ]
  %8 = getelementptr inbounds nuw ptr, ptr %6, i64 %indvars.iv
  %9 = load ptr, ptr %8, align 8, !tbaa !4
  %10 = getelementptr inbounds nuw i8, ptr %9, i64 16
  %11 = load ptr, ptr %10, align 8, !tbaa !87
  %12 = load i32, ptr %11, align 8, !tbaa !105
  switch i32 %12, label %27 [
    i32 0, label %13
    i32 1, label %24
  ]

13:                                               ; preds = %7
  %14 = getelementptr inbounds nuw i8, ptr %9, i64 64
  %15 = load i32, ptr %14, align 8, !tbaa !82
  %16 = and i32 %15, 1024
  %.not = icmp eq i32 %16, 0
  %spec.select = select i1 %.not, i32 0, i32 -400
  %17 = getelementptr inbounds nuw i8, ptr %11, i64 72
  %18 = load i32, ptr %17, align 8, !tbaa !108
  %.not32 = icmp eq i32 %18, 0
  br i1 %.not32, label %.thread, label %19

19:                                               ; preds = %13
  %20 = getelementptr inbounds nuw i8, ptr %11, i64 76
  %21 = load i32, ptr %20, align 4, !tbaa !109
  %.not33 = icmp eq i32 %21, 0
  %22 = add nuw nsw i32 %spec.select, 50
  %spec.select37 = select i1 %.not33, i32 %spec.select, i32 %22
  br label %.thread

.thread:                                          ; preds = %13, %19
  %.2 = phi i32 [ %spec.select, %13 ], [ %spec.select37, %19 ]
  %23 = add nsw i32 %.2, 25
  br label %27

24:                                               ; preds = %7
  %25 = getelementptr inbounds nuw i8, ptr %11, i64 152
  %26 = load i32, ptr %25, align 8, !tbaa !110
  %.not34 = icmp eq i32 %26, 0
  %spec.select38 = select i1 %.not34, i32 0, i32 50
  br label %27

27:                                               ; preds = %7, %.thread, %24
  %.3 = phi i32 [ %spec.select38, %24 ], [ %23, %.thread ], [ 0, %7 ]
  %28 = getelementptr inbounds nuw i8, ptr %9, i64 824
  %29 = load i32, ptr %28, align 8, !tbaa !111
  %.not35 = icmp eq i32 %29, 0
  %30 = add nsw i32 %.3, 12
  %spec.select39 = select i1 %.not35, i32 %.3, i32 %30
  %31 = getelementptr inbounds nuw i8, ptr %9, i64 68
  %32 = load i32, ptr %31, align 4, !tbaa !83
  %.not36 = icmp eq i32 %32, 48
  %33 = add nsw i32 %spec.select39, 200
  %.5 = select i1 %.not36, i32 %spec.select39, i32 %33
  %34 = icmp sgt i32 %.5, %.03041
  %.131 = tail call i32 @llvm.smax.i32(i32 %.5, i32 %.03041)
  %35 = trunc nuw i64 %indvars.iv to i32
  %.128 = select i1 %34, i32 %35, i32 %.02743
  %indvars.iv.next = add nuw nsw i64 %indvars.iv, 1
  %exitcond.not = icmp eq i64 %indvars.iv.next, %wide.trip.count
  br i1 %exitcond.not, label %.loopexit, label %7, !llvm.loop !112

.loopexit:                                        ; preds = %27, %1
  %.026 = phi i32 [ -1, %1 ], [ %.128, %27 ]
  ret i32 %.026
}